target datalayout = "e-m:e-p270:32:32-p271:32:32-p272:64:64-i64:64-i128:128-f80:128-n8:16:32:64-S128"
target triple = "x86_64-pc-linux-gnu"

@_ZN14TypeArrayKlassC1E9BasicTypeP6Symbol = hidden unnamed_addr alias void (ptr, i8, ptr), ptr @_ZN14TypeArrayKlassC2E9BasicTypeP6Symbol

; Function Attrs: mustprogress nounwind uwtable
define linkonce_odr hidden noundef i32 @_ZN14TypeArrayKlass11header_sizeEv() #1 comdat align 2 {
  ret i32 28
}

; Function Attrs: mustprogress nounwind uwtable
define hidden noundef ptr @_ZN14TypeArrayKlass8allocateEP15ClassLoaderData9BasicTypeP6SymbolP10JavaThread(ptr noundef %0, i8 noundef zeroext %1, ptr noundef %2, ptr noundef %3) #1 align 2 {
  %5 = alloca ptr, align 8
  %6 = alloca i8, align 1
  %7 = alloca ptr, align 8
  %8 = alloca ptr, align 8
  %9 = alloca i32, align 4
  store ptr %0, ptr %5, align 8
  store i8 %1, ptr %6, align 1
  store ptr %2, ptr %7, align 8
  store ptr %3, ptr %8, align 8
  %10 = call noundef i32 @_ZN14TypeArrayKlass11header_sizeEv()
  %11 = call noundef i32 @_ZN10ArrayKlass11static_sizeEi(i32 noundef %10)
  store i32 %11, ptr %9, align 4
  %12 = load ptr, ptr %5, align 8
  %13 = load i32, ptr %9, align 4
  %14 = sext i32 %13 to i64
  %15 = load ptr, ptr %8, align 8
  %16 = call noundef ptr @_ZN5KlassnwEmP15ClassLoaderDatamP10JavaThread(i64 noundef 224, ptr noundef %12, i64 noundef %14, ptr noundef %15) #6
  %17 = icmp eq ptr %16, null
  br i1 %17, label %21, label %18

18:                                               ; preds = %4
  %19 = load i8, ptr %6, align 1
  %20 = load ptr, ptr %7, align 8
  call void @_ZN14TypeArrayKlassC1E9BasicTypeP6Symbol(ptr noundef nonnull align 8 dereferenceable(220) %16, i8 noundef zeroext %19, ptr noundef %20)
  br label %21

21:                                               ; preds = %18, %4
  %22 = phi ptr [ %16, %18 ], [ null, %4 ]
  ret ptr %22
}