; Function Attrs: mustprogress nounwind uwtable
define hidden noundef ptr @_ZN14TypeArrayKlass8allocateEP15ClassLoaderData9BasicTypeP6SymbolP10JavaThread(ptr noundef %0, i8 noundef zeroext %1, ptr noundef %2, ptr noundef %3) local_unnamed_addr #0 align 2 {
  %5 = tail call noundef i32 @_ZN10ArrayKlass11static_sizeEi(i32 noundef 28) #10
  %6 = sext i32 %5 to i64
  %7 = tail call noundef ptr @_ZN5KlassnwEmP15ClassLoaderDatamP10JavaThread(i64 noundef 224, ptr noundef %0, i64 noundef %6, ptr noundef %3) #10
  %8 = icmp eq ptr %7, null
  br i1 %8, label %41, label %9

9:                                                ; preds = %4
  tail call void @_ZN10ArrayKlassC2EP6SymbolN5Klass9KlassKindE(ptr noundef nonnull align 8 dereferenceable(216) %7, ptr noundef %2, i32 noundef 5) #10
  store ptr getelementptr inbounds inrange(-16, 336) (i8, ptr @_ZTV14TypeArrayKlass, i64 16), ptr %7, align 8
  %10 = tail call noundef i32 @_ZN5Klass19array_layout_helperE9BasicType(i8 noundef zeroext %1) #10
  %11 = getelementptr inbounds i8, ptr %7, i64 8
  store i32 %10, ptr %11, align 8
  %12 = load i8, ptr @UseCompressedClassPointers, align 1
  %13 = trunc i8 %12 to i1
  %14 = select i1 %13, i32 16, i32 20
  %15 = and i8 %1, -2
  %or.cond.i.i.i.i = icmp eq i8 %15, 12
  br i1 %or.cond.i.i.i.i, label %16, label %_ZN12arrayOopDesc30element_type_should_be_alignedE9BasicType.exit.i.i.i

16:                                               ; preds = %9
  %17 = load i8, ptr @UseCompressedOops, align 1
  %18 = trunc i8 %17 to i1
  br i1 %18, label %_ZN14TypeArrayKlassC2E9BasicTypeP6Symbol.exit, label %19

_ZN12arrayOopDesc30element_type_should_be_alignedE9BasicType.exit.i.i.i: ; preds = %9
  switch i8 %1, label %_ZN14TypeArrayKlassC2E9BasicTypeP6Symbol.exit [
    i8 11, label %19
    i8 7, label %19
  ]

19:                                               ; preds = %_ZN12arrayOopDesc30element_type_should_be_alignedE9BasicType.exit.i.i.i, %_ZN12arrayOopDesc30element_type_should_be_alignedE9BasicType.exit.i.i.i, %16
  %narrow.i.i.i = add nuw nsw i32 %14, 7
  %20 = and i32 %narrow.i.i.i, 24
  br label %_ZN14TypeArrayKlassC2E9BasicTypeP6Symbol.exit

_ZN14TypeArrayKlassC2E9BasicTypeP6Symbol.exit:    ; preds = %16, %_ZN12arrayOopDesc30element_type_should_be_alignedE9BasicType.exit.i.i.i, %19
  %21 = phi i32 [ %20, %19 ], [ %14, %_ZN12arrayOopDesc30element_type_should_be_alignedE9BasicType.exit.i.i.i ], [ %14, %16 ]
  %narrow.i.i = add nuw nsw i32 %21, 7
  %22 = lshr i32 %narrow.i.i, 3
  %23 = zext nneg i32 %22 to i64
  %24 = xor i64 %23, 2305843009213693951
  %25 = load i32, ptr @MinObjAlignment, align 4
  %26 = sub i32 0, %25
  %27 = sext i32 %26 to i64
  %28 = and i64 %24, %27
  %29 = shl nuw i64 %28, 3
  %30 = zext i8 %1 to i64
  %31 = getelementptr inbounds [20 x i32], ptr @_type2aelembytes, i64 0, i64 %30
  %32 = load i32, ptr %31, align 4
  %33 = sext i32 %32 to i64
  %34 = udiv i64 %29, %33
  %35 = icmp ugt i64 %34, 2147483647
  %36 = xor i64 %23, 2147483647
  %37 = and i64 %36, %27
  %.0.in.i.i = select i1 %35, i64 %37, i64 %34
  %.0.i.i = trunc i64 %.0.in.i.i to i32
  %38 = getelementptr inbounds i8, ptr %7, i64 216
  store i32 %.0.i.i, ptr %38, align 8
  %39 = load ptr, ptr @_ZN15ClassLoaderData27_the_null_class_loader_dataE, align 8
  %40 = getelementptr inbounds i8, ptr %7, i64 152
  store ptr %39, ptr %40, align 8
  br label %41

41:                                               ; preds = %_ZN14TypeArrayKlassC2E9BasicTypeP6Symbol.exit, %4
  ret ptr %7
}